target datalayout = "e-m:e-p270:32:32-p271:32:32-p272:64:64-i64:64-i128:128-f80:128-n8:16:32:64-S128"
target triple = "x86_64-pc-linux-gnu"

%struct.Vec_Wec_t_ = type { i32, i32, ptr }
%struct.Gia_Man_t_ = type { ptr, ptr, i32, i32, i32, i32, ptr, ptr, i32, i32, i32, ptr, ptr, %struct.Vec_Int_t_, %struct.Vec_Int_t_, i32, i32, i32, %struct.Vec_Int_t_, ptr, ptr, ptr, i32, i32, i32, i32, ptr, ptr, ptr, ptr, ptr, i32, i32, ptr, i32, ptr, ptr, ptr, ptr, ptr, ptr, ptr, ptr, ptr, ptr, ptr, ptr, ptr, ptr, ptr, ptr, ptr, ptr, %struct.Vec_Int_t_, %struct.Vec_Int_t_, ptr, ptr, ptr, ptr, ptr, ptr, ptr, ptr, ptr, ptr, ptr, ptr, ptr, ptr, ptr, ptr, ptr, ptr, ptr, ptr, ptr, i32, float, float, ptr, ptr, i32, ptr, ptr, ptr, ptr, ptr, ptr, ptr, ptr, ptr, ptr, ptr, ptr, ptr, ptr, ptr, i64, i64, ptr, ptr, i32, i32, i32, i32, i32, i32, i32, i32, i32, i32, i32, i32, ptr, ptr, ptr, ptr, ptr, ptr, ptr, ptr, i32, i32, i32, ptr, i32, i32, ptr, ptr, ptr, ptr, ptr, ptr, i32, i32, ptr, %struct.Vec_Int_t_, %struct.Vec_Int_t_, %struct.Vec_Int_t_, ptr, ptr, ptr, i32, i32, i32, i32, ptr, ptr, ptr, ptr, ptr }
%struct.Vec_Int_t_ = type { i32, i32, ptr }
%struct.Spl_Man_t_ = type { ptr, i32, i32, i32, ptr, ptr, ptr, ptr, ptr, ptr, ptr, ptr, ptr, ptr, ptr }

@.str = private unnamed_addr constant [65 x i8] c"Obj = %6d : Leaf = %2d.  Node = %2d.  Root = %2d.    AND = %3d.\0A\00", align 1

; Function Attrs: inlinehint nounwind uwtable
define internal ptr @Vec_WecEntry(ptr noundef %0, i32 noundef %1) #2 {
  %3 = alloca ptr, align 8
  %4 = alloca i32, align 4
  store ptr %0, ptr %3, align 8, !tbaa !8
  store i32 %1, ptr %4, align 4, !tbaa !10
  %5 = load ptr, ptr %3, align 8, !tbaa !8
  %6 = getelementptr inbounds nuw %struct.Vec_Wec_t_, ptr %5, i32 0, i32 2
  %7 = load ptr, ptr %6, align 8, !tbaa !46
  %8 = load i32, ptr %4, align 4, !tbaa !10
  %9 = sext i32 %8 to i64
  %10 = getelementptr inbounds %struct.Vec_Int_t_, ptr %7, i64 %9
  ret ptr %10
}

; Function Attrs: inlinehint nounwind uwtable
define internal i32 @Vec_IntSize(ptr noundef %0) #2 {
  %2 = alloca ptr, align 8
  store ptr %0, ptr %2, align 8, !tbaa !37
  %3 = load ptr, ptr %2, align 8, !tbaa !37
  %4 = getelementptr inbounds nuw %struct.Vec_Int_t_, ptr %3, i32 0, i32 1
  %5 = load i32, ptr %4, align 4, !tbaa !40
  ret i32 %5
}

; Function Attrs: nounwind uwtable
define i32 @Gia_ManComputeOneWin(ptr noundef %0, i32 noundef %1, ptr noundef %2, ptr noundef %3, ptr noundef %4, ptr noundef %5) #0 {
  %7 = alloca i32, align 4
  %8 = alloca ptr, align 8
  %9 = alloca i32, align 4
  %10 = alloca ptr, align 8
  %11 = alloca ptr, align 8
  %12 = alloca ptr, align 8
  %13 = alloca ptr, align 8
  %14 = alloca ptr, align 8
  %15 = alloca i32, align 4
  store ptr %0, ptr %8, align 8, !tbaa !3
  store i32 %1, ptr %9, align 4, !tbaa !10
  store ptr %2, ptr %10, align 8, !tbaa !76
  store ptr %3, ptr %11, align 8, !tbaa !76
  store ptr %4, ptr %12, align 8, !tbaa !76
  store ptr %5, ptr %13, align 8, !tbaa !76
  call void @llvm.lifetime.start.p0(i64 8, ptr %14) #9
  %16 = load ptr, ptr %8, align 8, !tbaa !3
  %17 = getelementptr inbounds nuw %struct.Gia_Man_t_, ptr %16, i32 0, i32 41
  %18 = load ptr, ptr %17, align 8, !tbaa !113
  store ptr %18, ptr %14, align 8, !tbaa !47
  %19 = load i32, ptr %9, align 4, !tbaa !10
  %20 = icmp eq i32 %19, -1
  br i1 %20, label %21, label %25

21:                                               ; preds = %6
  %22 = load ptr, ptr %14, align 8, !tbaa !47
  call void @Spl_ManStop(ptr noundef %22)
  %23 = load ptr, ptr %8, align 8, !tbaa !3
  %24 = getelementptr inbounds nuw %struct.Gia_Man_t_, ptr %23, i32 0, i32 41
  store ptr null, ptr %24, align 8, !tbaa !113
  store i32 0, ptr %7, align 4
  store i32 1, ptr %15, align 4
  br label %56

25:                                               ; preds = %6
  %26 = load ptr, ptr %14, align 8, !tbaa !47
  %27 = load i32, ptr %9, align 4, !tbaa !10
  %28 = call i32 @Spl_ManComputeOne(ptr noundef %26, i32 noundef %27)
  %29 = icmp ne i32 %28, 0
  br i1 %29, label %35, label %30

30:                                               ; preds = %25
  %31 = load ptr, ptr %10, align 8, !tbaa !76
  store ptr null, ptr %31, align 8, !tbaa !37
  %32 = load ptr, ptr %11, align 8, !tbaa !76
  store ptr null, ptr %32, align 8, !tbaa !37
  %33 = load ptr, ptr %12, align 8, !tbaa !76
  store ptr null, ptr %33, align 8, !tbaa !37
  %34 = load ptr, ptr %13, align 8, !tbaa !76
  store ptr null, ptr %34, align 8, !tbaa !37
  store i32 0, ptr %7, align 4
  store i32 1, ptr %15, align 4
  br label %56

35:                                               ; preds = %25
  %36 = load ptr, ptr %14, align 8, !tbaa !47
  %37 = getelementptr inbounds nuw %struct.Spl_Man_t_, ptr %36, i32 0, i32 8
  %38 = load ptr, ptr %37, align 8, !tbaa !57
  %39 = load ptr, ptr %10, align 8, !tbaa !76
  store ptr %38, ptr %39, align 8, !tbaa !37
  %40 = load ptr, ptr %14, align 8, !tbaa !47
  %41 = getelementptr inbounds nuw %struct.Spl_Man_t_, ptr %40, i32 0, i32 9
  %42 = load ptr, ptr %41, align 8, !tbaa !58
  %43 = load ptr, ptr %11, align 8, !tbaa !76
  store ptr %42, ptr %43, align 8, !tbaa !37
  %44 = load ptr, ptr %14, align 8, !tbaa !47
  %45 = getelementptr inbounds nuw %struct.Spl_Man_t_, ptr %44, i32 0, i32 10
  %46 = load ptr, ptr %45, align 8, !tbaa !59
  %47 = load ptr, ptr %12, align 8, !tbaa !76
  store ptr %46, ptr %47, align 8, !tbaa !37
  %48 = load ptr, ptr %14, align 8, !tbaa !47
  %49 = getelementptr inbounds nuw %struct.Spl_Man_t_, ptr %48, i32 0, i32 11
  %50 = load ptr, ptr %49, align 8, !tbaa !60
  %51 = load ptr, ptr %13, align 8, !tbaa !76
  store ptr %50, ptr %51, align 8, !tbaa !37
  %52 = load ptr, ptr %14, align 8, !tbaa !47
  %53 = getelementptr inbounds nuw %struct.Spl_Man_t_, ptr %52, i32 0, i32 11
  %54 = load ptr, ptr %53, align 8, !tbaa !60
  %55 = call i32 @Vec_IntSize(ptr noundef %54)
  store i32 %55, ptr %7, align 4
  store i32 1, ptr %15, align 4
  br label %56

56:                                               ; preds = %35, %30, %21
  call void @llvm.lifetime.end.p0(i64 8, ptr %14) #9
  %57 = load i32, ptr %7, align 4
  ret i32 %57
}

; Function Attrs: inlinehint nounwind uwtable
define internal i32 @Gia_ObjIsLut2(ptr noundef %0, i32 noundef %1) #2 {
  %3 = alloca ptr, align 8
  %4 = alloca i32, align 4
  store ptr %0, ptr %3, align 8, !tbaa !3
  store i32 %1, ptr %4, align 4, !tbaa !10
  %5 = load ptr, ptr %3, align 8, !tbaa !3
  %6 = getelementptr inbounds nuw %struct.Gia_Man_t_, ptr %5, i32 0, i32 38
  %7 = load ptr, ptr %6, align 8, !tbaa !69
  %8 = load i32, ptr %4, align 4, !tbaa !10
  %9 = call ptr @Vec_WecEntry(ptr noundef %7, i32 noundef %8)
  %10 = call i32 @Vec_IntSize(ptr noundef %9)
  %11 = icmp ne i32 %10, 0
  %12 = zext i1 %11 to i32
  ret i32 %12
}

; Function Attrs: inlinehint nounwind uwtable
define internal i32 @Gia_ManObjNum(ptr noundef %0) #2 {
  %2 = alloca ptr, align 8
  store ptr %0, ptr %2, align 8, !tbaa !3
  %3 = load ptr, ptr %2, align 8, !tbaa !3
  %4 = getelementptr inbounds nuw %struct.Gia_Man_t_, ptr %3, i32 0, i32 4
  %5 = load i32, ptr %4, align 8, !tbaa !18
  ret i32 %5
}

; Function Attrs: nounwind uwtable
define void @Gia_ManComputeOneWinStart(ptr noundef %0, i32 noundef %1, i32 noundef %2) #0 {
  %4 = alloca ptr, align 8
  %5 = alloca i32, align 4
  %6 = alloca i32, align 4
  store ptr %0, ptr %4, align 8, !tbaa !3
  store i32 %1, ptr %5, align 4, !tbaa !10
  store i32 %2, ptr %6, align 4, !tbaa !10
  %7 = load ptr, ptr %4, align 8, !tbaa !3
  %8 = load i32, ptr %5, align 4, !tbaa !10
  %9 = load i32, ptr %6, align 4, !tbaa !10
  %10 = call ptr @Spl_ManAlloc(ptr noundef %7, i32 noundef %8, i32 noundef %9)
  %11 = load ptr, ptr %4, align 8, !tbaa !3
  %12 = getelementptr inbounds nuw %struct.Gia_Man_t_, ptr %11, i32 0, i32 41
  store ptr %10, ptr %12, align 8, !tbaa !113
  ret void
}

; Function Attrs: nounwind uwtable
define void @Spl_ManComputeOneTest(ptr noundef %0) #0 {
  %2 = alloca ptr, align 8
  %3 = alloca i32, align 4
  %4 = alloca i32, align 4
  %5 = alloca ptr, align 8
  %6 = alloca ptr, align 8
  %7 = alloca ptr, align 8
  %8 = alloca ptr, align 8
  store ptr %0, ptr %2, align 8, !tbaa !3
  call void @llvm.lifetime.start.p0(i64 4, ptr %3) #9
  call void @llvm.lifetime.start.p0(i64 4, ptr %4) #9
  %9 = load ptr, ptr %2, align 8, !tbaa !3
  call void @Gia_ManComputeOneWinStart(ptr noundef %9, i32 noundef 64, i32 noundef 0)
  store i32 1, ptr %3, align 4, !tbaa !10
  br label %10

10:                                               ; preds = %35, %1
  %11 = load i32, ptr %3, align 4, !tbaa !10
  %12 = load ptr, ptr %2, align 8, !tbaa !3
  %13 = call i32 @Gia_ManObjNum(ptr noundef %12)
  %14 = icmp slt i32 %11, %13
  br i1 %14, label %15, label %38

15:                                               ; preds = %10
  %16 = load ptr, ptr %2, align 8, !tbaa !3
  %17 = load i32, ptr %3, align 4, !tbaa !10
  %18 = call i32 @Gia_ObjIsLut2(ptr noundef %16, i32 noundef %17)
  %19 = icmp ne i32 %18, 0
  br i1 %19, label %21, label %20

20:                                               ; preds = %15
  br label %34

21:                                               ; preds = %15
  call void @llvm.lifetime.start.p0(i64 8, ptr %5) #9
  call void @llvm.lifetime.start.p0(i64 8, ptr %6) #9
  call void @llvm.lifetime.start.p0(i64 8, ptr %7) #9
  call void @llvm.lifetime.start.p0(i64 8, ptr %8) #9
  %22 = load ptr, ptr %2, align 8, !tbaa !3
  %23 = load i32, ptr %3, align 4, !tbaa !10
  %24 = call i32 @Gia_ManComputeOneWin(ptr noundef %22, i32 noundef %23, ptr noundef %5, ptr noundef %6, ptr noundef %7, ptr noundef %8)
  store i32 %24, ptr %4, align 4, !tbaa !10
  %25 = load i32, ptr %3, align 4, !tbaa !10
  %26 = load ptr, ptr %7, align 8, !tbaa !37
  %27 = call i32 @Vec_IntSize(ptr noundef %26)
  %28 = load ptr, ptr %6, align 8, !tbaa !37
  %29 = call i32 @Vec_IntSize(ptr noundef %28)
  %30 = load ptr, ptr %5, align 8, !tbaa !37
  %31 = call i32 @Vec_IntSize(ptr noundef %30)
  %32 = load i32, ptr %4, align 4, !tbaa !10
  %33 = call i32 (ptr, ...) @printf(ptr noundef @.str, i32 noundef %25, i32 noundef %27, i32 noundef %29, i32 noundef %31, i32 noundef %32)
  call void @llvm.lifetime.end.p0(i64 8, ptr %8) #9
  call void @llvm.lifetime.end.p0(i64 8, ptr %7) #9
  call void @llvm.lifetime.end.p0(i64 8, ptr %6) #9
  call void @llvm.lifetime.end.p0(i64 8, ptr %5) #9
  br label %34

34:                                               ; preds = %21, %20
  br label %35

35:                                               ; preds = %34
  %36 = load i32, ptr %3, align 4, !tbaa !10
  %37 = add nsw i32 %36, 1
  store i32 %37, ptr %3, align 4, !tbaa !10
  br label %10, !llvm.loop !114

38:                                               ; preds = %10
  %39 = load ptr, ptr %2, align 8, !tbaa !3
  %40 = call i32 @Gia_ManComputeOneWin(ptr noundef %39, i32 noundef -1, ptr noundef null, ptr noundef null, ptr noundef null, ptr noundef null)
  call void @llvm.lifetime.end.p0(i64 4, ptr %4) #9
  call void @llvm.lifetime.end.p0(i64 4, ptr %3) #9
  ret void
}