; Function Attrs: nounwind uwtable
define void @Spl_ManComputeOneTest(ptr noundef %0) local_unnamed_addr #0 {
  %2 = tail call ptr @Spl_ManAlloc(ptr noundef %0, i32 noundef 64, i32 noundef 0)
  %3 = getelementptr inbounds nuw i8, ptr %0, i64 296
  store ptr %2, ptr %3, align 8, !tbaa !106
  %4 = getelementptr i8, ptr %0, i64 24
  %.val21 = load i32, ptr %4, align 8, !tbaa !3
  %5 = icmp sgt i32 %.val21, 1
  br i1 %5, label %.lr.ph, label %._crit_edge

.lr.ph:                                           ; preds = %1
  %6 = getelementptr i8, ptr %0, i64 272
  br label %7

7:                                                ; preds = %.lr.ph, %26
  %.val24 = phi i32 [ %.val21, %.lr.ph ], [ %.val, %26 ]
  %indvars.iv = phi i64 [ 1, %.lr.ph ], [ %indvars.iv.next, %26 ]
  %.val13 = load ptr, ptr %6, align 8, !tbaa !68
  %8 = getelementptr i8, ptr %.val13, i64 8
  %.val13.val = load ptr, ptr %8, align 8, !tbaa !30
  %9 = getelementptr %struct.Vec_Int_t_, ptr %.val13.val, i64 %indvars.iv, i32 1
  %.val1.i = load i32, ptr %9, align 4, !tbaa !35
  %.not20 = icmp eq i32 %.val1.i, 0
  br i1 %.not20, label %26, label %Gia_ManComputeOneWin.exit

Gia_ManComputeOneWin.exit:                        ; preds = %7
  %10 = load ptr, ptr %3, align 8, !tbaa !106
  %11 = trunc nuw nsw i64 %indvars.iv to i32
  %12 = tail call i32 @Spl_ManComputeOne(ptr noundef %10, i32 noundef %11)
  %.not.i = icmp ne i32 %12, 0
  tail call void @llvm.assume(i1 %.not.i)
  %13 = getelementptr inbounds nuw i8, ptr %10, i64 56
  %14 = load ptr, ptr %13, align 8, !tbaa !56
  %15 = getelementptr inbounds nuw i8, ptr %10, i64 64
  %16 = load ptr, ptr %15, align 8, !tbaa !57
  %17 = getelementptr inbounds nuw i8, ptr %10, i64 72
  %18 = load ptr, ptr %17, align 8, !tbaa !58
  %19 = getelementptr inbounds nuw i8, ptr %10, i64 80
  %20 = load ptr, ptr %19, align 8, !tbaa !59
  %21 = getelementptr i8, ptr %20, i64 4
  %.val.i = load i32, ptr %21, align 4, !tbaa !35
  %22 = getelementptr i8, ptr %18, i64 4
  %.val12 = load i32, ptr %22, align 4, !tbaa !35
  %23 = getelementptr i8, ptr %16, i64 4
  %.val11 = load i32, ptr %23, align 4, !tbaa !35
  %24 = getelementptr i8, ptr %14, i64 4
  %.val10 = load i32, ptr %24, align 4, !tbaa !35
  %25 = tail call i32 (ptr, ...) @printf(ptr noundef nonnull dereferenceable(1) @.str, i32 noundef %11, i32 noundef %.val12, i32 noundef %.val11, i32 noundef %.val10, i32 noundef %.val.i)
  %.val.pre = load i32, ptr %4, align 8, !tbaa !3
  br label %26

26:                                               ; preds = %Gia_ManComputeOneWin.exit, %7
  %.val = phi i32 [ %.val.pre, %Gia_ManComputeOneWin.exit ], [ %.val24, %7 ]
  %indvars.iv.next = add nuw nsw i64 %indvars.iv, 1
  %27 = sext i32 %.val to i64
  %28 = icmp slt i64 %indvars.iv.next, %27
  br i1 %28, label %7, label %._crit_edge.loopexit, !llvm.loop !107

._crit_edge.loopexit:                             ; preds = %26
  %.pre = load ptr, ptr %3, align 8, !tbaa !106
  br label %._crit_edge

._crit_edge:                                      ; preds = %._crit_edge.loopexit, %1
  %29 = phi ptr [ %.pre, %._crit_edge.loopexit ], [ %2, %1 ]
  tail call void @Spl_ManStop(ptr noundef %29)
  store ptr null, ptr %3, align 8, !tbaa !106
  ret void
}